target datalayout = "e-m:e-p270:32:32-p271:32:32-p272:64:64-i64:64-i128:128-f80:128-n8:16:32:64-S128"
target triple = "x86_64-pc-linux-gnu"

%struct.AVRational = type { i32, i32 }
%struct.AVChannelLayout = type { i32, i32, %union.anon, ptr }
%union.anon = type { i64 }
%struct.AVCodecContext = type { ptr, i32, i32, ptr, i32, i32, ptr, ptr, ptr, i64, i32, i32, ptr, i32, %struct.AVRational, %struct.AVRational, %struct.AVRational, i32, i32, i32, i32, i32, %struct.AVRational, i32, i32, i32, i32, i32, i32, i32, i32, i32, i32, i32, ptr, ptr, i32, float, float, float, float, float, float, float, float, float, i32, i32, i32, i32, i32, i32, i32, i32, i32, i32, i32, i32, ptr, ptr, ptr, i32, i32, i32, i32, i32, i32, i32, i32, i32, i32, %struct.AVChannelLayout, i32, i32, i32, i32, i32, i32, i32, i32, ptr, i32, i32, i32, float, float, i32, i32, i32, i32, i32, ptr, i64, i64, float, float, i32, i32, ptr, ptr, i32, i32, i32, i32, i32, ptr, ptr, ptr, ptr, i32, i32, [8 x i64], i32, i32, i32, i32, i32, i32, i32, ptr, ptr, i32, i32, i32, i32, i32, i32, i32, i32, i32, i32, ptr, ptr, i32, i32, ptr, ptr, ptr, ptr, i32, i32, i64, i32, i32, i64, ptr, i64, ptr, i32, ptr, i32 }

; Function Attrs: nounwind uwtable
define i32 @ff_cbs_read_extradata_from_codec(ptr noundef %0, ptr noundef %1, ptr noundef %2) #3 {
  %4 = alloca ptr, align 8
  %5 = alloca ptr, align 8
  %6 = alloca ptr, align 8
  store ptr %0, ptr %4, align 8, !tbaa !22
  store ptr %1, ptr %5, align 8, !tbaa !39
  store ptr %2, ptr %6, align 8, !tbaa !70
  %7 = load ptr, ptr %4, align 8, !tbaa !22
  %8 = load ptr, ptr %5, align 8, !tbaa !39
  %9 = load ptr, ptr %6, align 8, !tbaa !70
  %10 = getelementptr inbounds nuw %struct.AVCodecContext, ptr %9, i32 0, i32 12
  %11 = load ptr, ptr %10, align 8, !tbaa !72
  %12 = load ptr, ptr %6, align 8, !tbaa !70
  %13 = getelementptr inbounds nuw %struct.AVCodecContext, ptr %12, i32 0, i32 13
  %14 = load i32, ptr %13, align 8, !tbaa !82
  %15 = sext i32 %14 to i64
  %16 = call i32 @cbs_read_data(ptr noundef %7, ptr noundef %8, ptr noundef null, ptr noundef %11, i64 noundef %15, i32 noundef 1)
  ret i32 %16
}